; Function Attrs: nounwind uwtable
define internal fastcc i32 @ftp_state_prepare_transfer(ptr noundef %0) unnamed_addr #0 {
  %2 = getelementptr inbounds nuw i8, ptr %0, i64 432
  %3 = load ptr, ptr %2, align 8, !tbaa !21
  %4 = getelementptr inbounds nuw i8, ptr %0, i64 24
  %5 = load ptr, ptr %4, align 8, !tbaa !107
  %6 = getelementptr inbounds nuw i8, ptr %3, i64 16
  %7 = load i32, ptr %6, align 8, !tbaa !97
  %.not = icmp eq i32 %7, 0
  br i1 %.not, label %30, label %8

8:                                                ; preds = %1
  %9 = getelementptr inbounds nuw i8, ptr %5, i64 1326
  %10 = load i8, ptr %9, align 2, !tbaa !138
  %.not42 = icmp eq i8 %10, 13
  br i1 %.not42, label %_ftp_state.exit, label %11

11:                                               ; preds = %8
  %12 = getelementptr inbounds nuw i8, ptr %0, i64 2562
  %13 = load i64, ptr %12, align 2
  %14 = and i64 %13, 134217728
  %.not.i = icmp eq i64 %14, 0
  br i1 %.not.i, label %_ftp_state.exit, label %15

15:                                               ; preds = %11
  %16 = getelementptr inbounds nuw i8, ptr %0, i64 4712
  %17 = load ptr, ptr %16, align 8, !tbaa !104
  %.not20.i = icmp eq ptr %17, null
  br i1 %.not20.i, label %24, label %18

18:                                               ; preds = %15
  %19 = getelementptr inbounds nuw i8, ptr %17, i64 8
  %20 = load i32, ptr %19, align 8, !tbaa !105
  %21 = icmp sgt i32 %20, 0
  %22 = load i32, ptr getelementptr inbounds nuw (i8, ptr @Curl_trc_feat_ftp, i64 8), align 8
  %23 = icmp sgt i32 %22, 0
  %or.cond.i = select i1 %21, i1 %23, i1 false
  br i1 %or.cond.i, label %25, label %_ftp_state.exit

24:                                               ; preds = %15
  %.old.i = load i32, ptr getelementptr inbounds nuw (i8, ptr @Curl_trc_feat_ftp, i64 8), align 8, !tbaa !105
  %.old1.i = icmp sgt i32 %.old.i, 0
  br i1 %.old1.i, label %25, label %_ftp_state.exit

25:                                               ; preds = %24, %18
  %26 = zext i8 %10 to i64
  %27 = getelementptr inbounds nuw [35 x ptr], ptr @ftp_state_names, i64 0, i64 %26
  %28 = load ptr, ptr %27, align 8, !tbaa !8
  tail call void (ptr, ptr, ...) @Curl_trc_ftp(ptr noundef nonnull %0, ptr noundef nonnull @.str.7, ptr noundef %28, ptr noundef nonnull @.str.22) #10
  br label %_ftp_state.exit

_ftp_state.exit:                                  ; preds = %8, %11, %18, %24, %25
  store i8 13, ptr %9, align 2, !tbaa !138
  %29 = tail call fastcc i32 @ftp_state_quote(ptr noundef nonnull %0, i1 noundef zeroext true, i8 noundef zeroext 13)
  br label %85

30:                                               ; preds = %1
  %31 = getelementptr inbounds nuw i8, ptr %0, i64 2562
  %32 = load i64, ptr %31, align 2
  %33 = and i64 %32, 2048
  %.not28 = icmp eq i64 %33, 0
  br i1 %.not28, label %36, label %34

34:                                               ; preds = %30
  %35 = tail call fastcc i32 @ftp_state_use_port(ptr noundef nonnull %0, i32 noundef 0)
  br label %85

36:                                               ; preds = %30
  %37 = and i64 %32, 16384
  %.not29 = icmp eq i64 %37, 0
  br i1 %.not29, label %83, label %38

38:                                               ; preds = %36
  %39 = getelementptr inbounds nuw i8, ptr %5, i64 1056
  %40 = getelementptr inbounds nuw i8, ptr %5, i64 1240
  %41 = load ptr, ptr %40, align 8, !tbaa !21
  %.not30 = icmp eq ptr %41, null
  br i1 %.not30, label %42, label %53

42:                                               ; preds = %38
  %43 = getelementptr inbounds nuw i8, ptr %0, i64 2040
  %44 = load ptr, ptr %43, align 8, !tbaa !8
  %.not31 = icmp eq ptr %44, null
  br i1 %.not31, label %45, label %50

45:                                               ; preds = %42
  %46 = getelementptr inbounds nuw i8, ptr %0, i64 4876
  %47 = load i32, ptr %46, align 4
  %48 = and i32 %47, 32768
  %.not32 = icmp eq i32 %48, 0
  %49 = select i1 %.not32, ptr @.str.40, ptr @.str.90
  br label %50

50:                                               ; preds = %42, %45
  %51 = phi ptr [ %49, %45 ], [ %44, %42 ]
  %52 = tail call i32 (ptr, ptr, ptr, ...) @Curl_pp_sendf(ptr noundef nonnull %0, ptr noundef nonnull %39, ptr noundef nonnull @.str.89, ptr noundef nonnull %51) #10
  br label %61

53:                                               ; preds = %38
  %54 = getelementptr inbounds nuw i8, ptr %0, i64 4876
  %55 = load i32, ptr %54, align 4
  %56 = and i32 %55, 524288
  %.not33 = icmp eq i32 %56, 0
  br i1 %.not33, label %59, label %57

57:                                               ; preds = %53
  %58 = tail call i32 (ptr, ptr, ptr, ...) @Curl_pp_sendf(ptr noundef nonnull %0, ptr noundef nonnull %39, ptr noundef nonnull @.str.91, ptr noundef nonnull %41) #10
  br label %61

59:                                               ; preds = %53
  %60 = tail call i32 (ptr, ptr, ptr, ...) @Curl_pp_sendf(ptr noundef nonnull %0, ptr noundef nonnull %39, ptr noundef nonnull @.str.92, ptr noundef nonnull %41) #10
  br label %61

61:                                               ; preds = %57, %59, %50
  %.1 = phi i32 [ %58, %57 ], [ %60, %59 ], [ %52, %50 ]
  %.not34 = icmp eq i32 %.1, 0
  br i1 %.not34, label %62, label %85

62:                                               ; preds = %61
  %63 = load ptr, ptr %4, align 8, !tbaa !107
  %64 = getelementptr inbounds nuw i8, ptr %63, i64 1326
  %65 = load i8, ptr %64, align 2, !tbaa !138
  %.not43 = icmp eq i8 %65, 29
  br i1 %.not43, label %_ftp_state.exit41, label %66

66:                                               ; preds = %62
  %67 = load i64, ptr %31, align 2
  %68 = and i64 %67, 134217728
  %.not.i36 = icmp eq i64 %68, 0
  br i1 %.not.i36, label %_ftp_state.exit41, label %69

69:                                               ; preds = %66
  %70 = getelementptr inbounds nuw i8, ptr %0, i64 4712
  %71 = load ptr, ptr %70, align 8, !tbaa !104
  %.not20.i37 = icmp eq ptr %71, null
  br i1 %.not20.i37, label %78, label %72

72:                                               ; preds = %69
  %73 = getelementptr inbounds nuw i8, ptr %71, i64 8
  %74 = load i32, ptr %73, align 8, !tbaa !105
  %75 = icmp sgt i32 %74, 0
  %76 = load i32, ptr getelementptr inbounds nuw (i8, ptr @Curl_trc_feat_ftp, i64 8), align 8
  %77 = icmp sgt i32 %76, 0
  %or.cond.i38 = select i1 %75, i1 %77, i1 false
  br i1 %or.cond.i38, label %79, label %_ftp_state.exit41

78:                                               ; preds = %69
  %.old.i39 = load i32, ptr getelementptr inbounds nuw (i8, ptr @Curl_trc_feat_ftp, i64 8), align 8, !tbaa !105
  %.old1.i40 = icmp sgt i32 %.old.i39, 0
  br i1 %.old1.i40, label %79, label %_ftp_state.exit41

79:                                               ; preds = %78, %72
  %80 = zext i8 %65 to i64
  %81 = getelementptr inbounds nuw [35 x ptr], ptr @ftp_state_names, i64 0, i64 %80
  %82 = load ptr, ptr %81, align 8, !tbaa !8
  tail call void (ptr, ptr, ...) @Curl_trc_ftp(ptr noundef nonnull %0, ptr noundef nonnull @.str.7, ptr noundef %82, ptr noundef nonnull @.str.38) #10
  br label %_ftp_state.exit41

_ftp_state.exit41:                                ; preds = %62, %66, %72, %78, %79
  store i8 29, ptr %64, align 2, !tbaa !138
  br label %85

83:                                               ; preds = %36
  %84 = tail call fastcc i32 @ftp_state_use_pasv(ptr noundef nonnull %0, ptr noundef %5)
  br label %85

85:                                               ; preds = %61, %_ftp_state.exit41, %34, %83, %_ftp_state.exit
  %.0 = phi i32 [ %29, %_ftp_state.exit ], [ %35, %34 ], [ %84, %83 ], [ 0, %_ftp_state.exit41 ], [ %.1, %61 ]
  ret i32 %.0
}